target datalayout = "e-m:e-p270:32:32-p271:32:32-p272:64:64-i64:64-i128:128-f80:128-n8:16:32:64-S128"
target triple = "x86_64-pc-linux-gnu"

%struct.H5O_msg_class_t = type { i32, ptr, i64, i32, ptr, ptr, ptr, ptr, ptr, ptr, ptr, ptr, ptr, ptr, ptr, ptr, ptr, ptr, ptr, ptr }
%struct.H5O_ainfo_t = type { i8, i8, i32, i64, i64, i64, i64 }
%struct.H5O_mesg_operator_t = type { i32, %union.anon.0 }
%union.anon.0 = type { ptr }
%struct.H5O_loc_t = type { ptr, i64, i8 }
%struct.H5O_t = type { %struct.H5C_cache_entry_t, i64, i64, i8, i64, i8, i32, i8, i8, i64, i64, i64, i64, i32, i32, i64, i64, ptr, i64, i64, i64, i64, ptr, i8, ptr }
%struct.H5C_cache_entry_t = type { ptr, i64, i64, ptr, i8, ptr, i8, i8, i8, i8, i32, i8, i8, i8, i8, i8, i32, ptr, i32, i32, i32, i32, i32, i8, i8, ptr, ptr, ptr, ptr, ptr, ptr, i8, i32, i8, i64, ptr, i64, i64, i32, i8, i32, i32, i8, ptr, ptr, ptr }
%struct.H5O_iter_xst_t = type { ptr, ptr }

@.str = private unnamed_addr constant [106 x i8] c"generated/home/dtcxzyw/WorkSpace/Projects/compilers/llvm-opt-benchmark/bench/hdf5/hdf5/src/H5Oattribute.c\00", align 1
@H5E_ATTR_g = external global i64, align 8
@H5E_CANTGET_g = external global i64, align 8
@.str.3 = private unnamed_addr constant [39 x i8] c"can't check for attribute info message\00", align 1
@H5O_MSG_ATTR = external constant [1 x %struct.H5O_msg_class_t], align 16
@H5E_CANTPROTECT_g = external global i64, align 8
@.str.17 = private unnamed_addr constant [29 x i8] c"unable to load object header\00", align 1
@H5E_CANTUNPROTECT_g = external global i64, align 8
@.str.24 = private unnamed_addr constant [32 x i8] c"unable to release object header\00", align 1
@H5E_BADITER_g = external global i64, align 8
@__func__.H5O__attr_exists = private unnamed_addr constant [17 x i8] c"H5O__attr_exists\00", align 1
@.str.45 = private unnamed_addr constant [42 x i8] c"error checking for existence of attribute\00", align 1

; Function Attrs: nounwind uwtable
define i32 @H5O__attr_exists(ptr noundef %0, ptr noundef %1, ptr noundef %2) #0 {
  %4 = alloca ptr, align 8
  %5 = alloca ptr, align 8
  %6 = alloca ptr, align 8
  %7 = alloca ptr, align 8
  %8 = alloca %struct.H5O_ainfo_t, align 8
  %9 = alloca i32, align 4
  %10 = alloca i64, align 8
  %11 = alloca i8, align 1
  %12 = alloca %struct.H5O_iter_xst_t, align 8
  %13 = alloca %struct.H5O_mesg_operator_t, align 8
  store ptr %0, ptr %4, align 8
  store ptr %1, ptr %5, align 8
  store ptr %2, ptr %6, align 8
  store ptr null, ptr %7, align 8
  store i32 0, ptr %9, align 4
  store i64 -1, ptr %10, align 8
  store i8 0, ptr %11, align 1
  %14 = load ptr, ptr %4, align 8
  %15 = getelementptr inbounds %struct.H5O_loc_t, ptr %14, i32 0, i32 1
  %16 = load i64, ptr %15, align 8
  call void @H5AC_tag(i64 noundef %16, ptr noundef %10)
  %17 = load ptr, ptr %4, align 8
  %18 = call ptr @H5O_protect(ptr noundef %17, i32 noundef 128, i1 noundef zeroext false)
  store ptr %18, ptr %7, align 8
  %19 = icmp eq ptr null, %18
  br i1 %19, label %20, label %35

20:                                               ; preds = %3
  br label %21

21:                                               ; preds = %20
  br label %22

22:                                               ; preds = %21
  br label %23

23:                                               ; preds = %22
  %24 = load i64, ptr @H5E_ATTR_g, align 8
  %25 = load i64, ptr @H5E_CANTPROTECT_g, align 8
  %26 = call i32 (ptr, ptr, i32, i64, i64, ptr, ...) @H5E_printf_stack(ptr noundef @.str, ptr noundef @__func__.H5O__attr_exists, i32 noundef 1725, i64 noundef %24, i64 noundef %25, ptr noundef @.str.17)
  br label %27

27:                                               ; preds = %23
  store i8 1, ptr %11, align 1
  %28 = load i8, ptr %11, align 1
  %29 = trunc i8 %28 to i1
  %30 = zext i1 %29 to i8
  store i8 %30, ptr %11, align 1
  br label %31

31:                                               ; preds = %27
  br label %32

32:                                               ; preds = %31
  store i32 -1, ptr %9, align 4
  br label %123

33:                                               ; No predecessors!
  br label %34

34:                                               ; preds = %33
  br label %35

35:                                               ; preds = %34, %3
  %36 = getelementptr inbounds %struct.H5O_ainfo_t, ptr %8, i32 0, i32 5
  store i64 -1, ptr %36, align 8
  %37 = load ptr, ptr %7, align 8
  %38 = getelementptr inbounds %struct.H5O_t, ptr %37, i32 0, i32 7
  %39 = load i8, ptr %38, align 8
  %40 = zext i8 %39 to i32
  %41 = icmp sgt i32 %40, 1
  br i1 %41, label %42, label %65

42:                                               ; preds = %35
  %43 = load ptr, ptr %4, align 8
  %44 = getelementptr inbounds %struct.H5O_loc_t, ptr %43, i32 0, i32 0
  %45 = load ptr, ptr %44, align 8
  %46 = load ptr, ptr %7, align 8
  %47 = call i32 @H5A__get_ainfo(ptr noundef %45, ptr noundef %46, ptr noundef %8)
  %48 = icmp slt i32 %47, 0
  br i1 %48, label %49, label %64

49:                                               ; preds = %42
  br label %50

50:                                               ; preds = %49
  br label %51

51:                                               ; preds = %50
  br label %52

52:                                               ; preds = %51
  %53 = load i64, ptr @H5E_ATTR_g, align 8
  %54 = load i64, ptr @H5E_CANTGET_g, align 8
  %55 = call i32 (ptr, ptr, i32, i64, i64, ptr, ...) @H5E_printf_stack(ptr noundef @.str, ptr noundef @__func__.H5O__attr_exists, i32 noundef 1732, i64 noundef %53, i64 noundef %54, ptr noundef @.str.3)
  br label %56

56:                                               ; preds = %52
  store i8 1, ptr %11, align 1
  %57 = load i8, ptr %11, align 1
  %58 = trunc i8 %57 to i1
  %59 = zext i1 %58 to i8
  store i8 %59, ptr %11, align 1
  br label %60

60:                                               ; preds = %56
  br label %61

61:                                               ; preds = %60
  store i32 -1, ptr %9, align 4
  br label %123

62:                                               ; No predecessors!
  br label %63

63:                                               ; preds = %62
  br label %64

64:                                               ; preds = %63, %42
  br label %65

65:                                               ; preds = %64, %35
  %66 = getelementptr inbounds %struct.H5O_ainfo_t, ptr %8, i32 0, i32 5
  %67 = load i64, ptr %66, align 8
  %68 = icmp ne i64 %67, -1
  br i1 %68, label %69, label %93

69:                                               ; preds = %65
  %70 = load ptr, ptr %4, align 8
  %71 = getelementptr inbounds %struct.H5O_loc_t, ptr %70, i32 0, i32 0
  %72 = load ptr, ptr %71, align 8
  %73 = load ptr, ptr %5, align 8
  %74 = load ptr, ptr %6, align 8
  %75 = call i32 @H5A__dense_exists(ptr noundef %72, ptr noundef %8, ptr noundef %73, ptr noundef %74)
  %76 = icmp slt i32 %75, 0
  br i1 %76, label %77, label %92

77:                                               ; preds = %69
  br label %78

78:                                               ; preds = %77
  br label %79

79:                                               ; preds = %78
  br label %80

80:                                               ; preds = %79
  %81 = load i64, ptr @H5E_ATTR_g, align 8
  %82 = load i64, ptr @H5E_BADITER_g, align 8
  %83 = call i32 (ptr, ptr, i32, i64, i64, ptr, ...) @H5E_printf_stack(ptr noundef @.str, ptr noundef @__func__.H5O__attr_exists, i32 noundef 1739, i64 noundef %81, i64 noundef %82, ptr noundef @.str.45)
  br label %84

84:                                               ; preds = %80
  store i8 1, ptr %11, align 1
  %85 = load i8, ptr %11, align 1
  %86 = trunc i8 %85 to i1
  %87 = zext i1 %86 to i8
  store i8 %87, ptr %11, align 1
  br label %88

88:                                               ; preds = %84
  br label %89

89:                                               ; preds = %88
  store i32 -1, ptr %9, align 4
  br label %123

90:                                               ; No predecessors!
  br label %91

91:                                               ; preds = %90
  br label %92

92:                                               ; preds = %91, %69
  br label %122

93:                                               ; preds = %65
  %94 = load ptr, ptr %5, align 8
  %95 = getelementptr inbounds %struct.H5O_iter_xst_t, ptr %12, i32 0, i32 0
  store ptr %94, ptr %95, align 8
  %96 = load ptr, ptr %6, align 8
  %97 = getelementptr inbounds %struct.H5O_iter_xst_t, ptr %12, i32 0, i32 1
  store ptr %96, ptr %97, align 8
  %98 = getelementptr inbounds %struct.H5O_mesg_operator_t, ptr %13, i32 0, i32 0
  store i32 1, ptr %98, align 8
  %99 = getelementptr inbounds %struct.H5O_mesg_operator_t, ptr %13, i32 0, i32 1
  store ptr @H5O__attr_exists_cb, ptr %99, align 8
  %100 = load ptr, ptr %4, align 8
  %101 = getelementptr inbounds %struct.H5O_loc_t, ptr %100, i32 0, i32 0
  %102 = load ptr, ptr %101, align 8
  %103 = load ptr, ptr %7, align 8
  %104 = call i32 @H5O__msg_iterate_real(ptr noundef %102, ptr noundef %103, ptr noundef @H5O_MSG_ATTR, ptr noundef %13, ptr noundef %12)
  %105 = icmp slt i32 %104, 0
  br i1 %105, label %106, label %121

106:                                              ; preds = %93
  br label %107

107:                                              ; preds = %106
  br label %108

108:                                              ; preds = %107
  br label %109

109:                                              ; preds = %108
  %110 = load i64, ptr @H5E_ATTR_g, align 8
  %111 = load i64, ptr @H5E_BADITER_g, align 8
  %112 = call i32 (ptr, ptr, i32, i64, i64, ptr, ...) @H5E_printf_stack(ptr noundef @.str, ptr noundef @__func__.H5O__attr_exists, i32 noundef 1753, i64 noundef %110, i64 noundef %111, ptr noundef @.str.45)
  br label %113

113:                                              ; preds = %109
  store i8 1, ptr %11, align 1
  %114 = load i8, ptr %11, align 1
  %115 = trunc i8 %114 to i1
  %116 = zext i1 %115 to i8
  store i8 %116, ptr %11, align 1
  br label %117

117:                                              ; preds = %113
  br label %118

118:                                              ; preds = %117
  store i32 -1, ptr %9, align 4
  br label %123

119:                                              ; No predecessors!
  br label %120

120:                                              ; preds = %119
  br label %121

121:                                              ; preds = %120, %93
  br label %122

122:                                              ; preds = %121, %92
  br label %123

123:                                              ; preds = %122, %118, %89, %61, %32
  %124 = load ptr, ptr %7, align 8
  %125 = icmp ne ptr %124, null
  br i1 %125, label %126, label %144

126:                                              ; preds = %123
  %127 = load ptr, ptr %4, align 8
  %128 = load ptr, ptr %7, align 8
  %129 = call i32 @H5O_unprotect(ptr noundef %127, ptr noundef %128, i32 noundef 0)
  %130 = icmp slt i32 %129, 0
  br i1 %130, label %131, label %144

131:                                              ; preds = %126
  br label %132

132:                                              ; preds = %131
  br label %133

133:                                              ; preds = %132
  br label %134

134:                                              ; preds = %133
  %135 = load i64, ptr @H5E_ATTR_g, align 8
  %136 = load i64, ptr @H5E_CANTUNPROTECT_g, align 8
  %137 = call i32 (ptr, ptr, i32, i64, i64, ptr, ...) @H5E_printf_stack(ptr noundef @.str, ptr noundef @__func__.H5O__attr_exists, i32 noundef 1758, i64 noundef %135, i64 noundef %136, ptr noundef @.str.24)
  br label %138

138:                                              ; preds = %134
  store i8 1, ptr %11, align 1
  %139 = load i8, ptr %11, align 1
  %140 = trunc i8 %139 to i1
  %141 = zext i1 %140 to i8
  store i8 %141, ptr %11, align 1
  br label %142

142:                                              ; preds = %138
  store i32 -1, ptr %9, align 4
  br label %143

143:                                              ; preds = %142
  br label %144

144:                                              ; preds = %143, %126, %123
  %145 = load i64, ptr %10, align 8
  call void @H5AC_tag(i64 noundef %145, ptr noundef null)
  %146 = load i32, ptr %9, align 4
  ret i32 %146
}