; Function Attrs: nounwind uwtable
define range(i32 -1, 1) i32 @H5O__attr_exists(ptr noundef %0, ptr noundef %1, ptr noundef %2) local_unnamed_addr #0 {
  %4 = alloca %struct.H5O_ainfo_t, align 8
  %5 = alloca i64, align 8
  %6 = alloca %struct.H5O_iter_xst_t, align 8
  %7 = alloca %struct.H5O_mesg_operator_t, align 8
  store i64 -1, ptr %5, align 8
  %8 = getelementptr inbounds i8, ptr %0, i64 8
  %9 = load i64, ptr %8, align 8
  call void @H5AC_tag(i64 noundef %9, ptr noundef nonnull %5) #9
  %10 = call ptr @H5O_protect(ptr noundef %0, i32 noundef 128, i1 noundef zeroext false) #9
  %11 = icmp eq ptr %10, null
  br i1 %11, label %43, label %12

12:                                               ; preds = %3
  %13 = getelementptr inbounds i8, ptr %4, i64 24
  store i64 -1, ptr %13, align 8
  %14 = getelementptr inbounds i8, ptr %10, i64 288
  %15 = load i8, ptr %14, align 8
  %16 = icmp ugt i8 %15, 1
  br i1 %16, label %17, label %.thread

17:                                               ; preds = %12
  %18 = load ptr, ptr %0, align 8
  %19 = call i32 @H5A__get_ainfo(ptr noundef %18, ptr noundef nonnull %10, ptr noundef nonnull %4) #9
  %20 = icmp slt i32 %19, 0
  br i1 %20, label %21, label %25

21:                                               ; preds = %17
  %22 = load i64, ptr @H5E_ATTR_g, align 8
  %23 = load i64, ptr @H5E_CANTGET_g, align 8
  %24 = call i32 (ptr, ptr, i32, i64, i64, ptr, ...) @H5E_printf_stack(ptr noundef nonnull @.str, ptr noundef nonnull @__func__.H5O__attr_exists, i32 noundef 1732, i64 noundef %22, i64 noundef %23, ptr noundef nonnull @.str.3) #9
  br label %47

25:                                               ; preds = %17
  %.pr = load i64, ptr %13, align 8
  %.not = icmp eq i64 %.pr, -1
  br i1 %.not, label %.thread, label %26

26:                                               ; preds = %25
  %27 = load ptr, ptr %0, align 8
  %28 = call i32 @H5A__dense_exists(ptr noundef %27, ptr noundef nonnull %4, ptr noundef %1, ptr noundef %2) #9
  %29 = icmp slt i32 %28, 0
  br i1 %29, label %30, label %47

30:                                               ; preds = %26
  %31 = load i64, ptr @H5E_ATTR_g, align 8
  %32 = load i64, ptr @H5E_BADITER_g, align 8
  %33 = call i32 (ptr, ptr, i32, i64, i64, ptr, ...) @H5E_printf_stack(ptr noundef nonnull @.str, ptr noundef nonnull @__func__.H5O__attr_exists, i32 noundef 1739, i64 noundef %31, i64 noundef %32, ptr noundef nonnull @.str.45) #9
  br label %47

.thread:                                          ; preds = %12, %25
  store ptr %1, ptr %6, align 8
  %34 = getelementptr inbounds i8, ptr %6, i64 8
  store ptr %2, ptr %34, align 8
  store i32 1, ptr %7, align 8
  %35 = getelementptr inbounds i8, ptr %7, i64 8
  store ptr @H5O__attr_exists_cb, ptr %35, align 8
  %36 = load ptr, ptr %0, align 8
  %37 = call i32 @H5O__msg_iterate_real(ptr noundef %36, ptr noundef nonnull %10, ptr noundef nonnull @H5O_MSG_ATTR, ptr noundef nonnull %7, ptr noundef nonnull %6) #9
  %38 = icmp slt i32 %37, 0
  br i1 %38, label %39, label %47

39:                                               ; preds = %.thread
  %40 = load i64, ptr @H5E_ATTR_g, align 8
  %41 = load i64, ptr @H5E_BADITER_g, align 8
  %42 = call i32 (ptr, ptr, i32, i64, i64, ptr, ...) @H5E_printf_stack(ptr noundef nonnull @.str, ptr noundef nonnull @__func__.H5O__attr_exists, i32 noundef 1753, i64 noundef %40, i64 noundef %41, ptr noundef nonnull @.str.45) #9
  br label %47

43:                                               ; preds = %3
  %44 = load i64, ptr @H5E_ATTR_g, align 8
  %45 = load i64, ptr @H5E_CANTPROTECT_g, align 8
  %46 = call i32 (ptr, ptr, i32, i64, i64, ptr, ...) @H5E_printf_stack(ptr noundef nonnull @.str, ptr noundef nonnull @__func__.H5O__attr_exists, i32 noundef 1725, i64 noundef %44, i64 noundef %45, ptr noundef nonnull @.str.17) #9
  br label %54

47:                                               ; preds = %26, %.thread, %39, %30, %21
  %.0.ph = phi i32 [ 0, %.thread ], [ -1, %39 ], [ 0, %26 ], [ -1, %30 ], [ -1, %21 ]
  %48 = call i32 @H5O_unprotect(ptr noundef nonnull %0, ptr noundef nonnull %10, i32 noundef 0) #9
  %49 = icmp slt i32 %48, 0
  br i1 %49, label %50, label %54

50:                                               ; preds = %47
  %51 = load i64, ptr @H5E_ATTR_g, align 8
  %52 = load i64, ptr @H5E_CANTUNPROTECT_g, align 8
  %53 = call i32 (ptr, ptr, i32, i64, i64, ptr, ...) @H5E_printf_stack(ptr noundef nonnull @.str, ptr noundef nonnull @__func__.H5O__attr_exists, i32 noundef 1758, i64 noundef %51, i64 noundef %52, ptr noundef nonnull @.str.24) #9
  br label %54

54:                                               ; preds = %43, %50, %47
  %.1 = phi i32 [ -1, %50 ], [ %.0.ph, %47 ], [ -1, %43 ]
  %55 = load i64, ptr %5, align 8
  call void @H5AC_tag(i64 noundef %55, ptr noundef null) #9
  ret i32 %.1
}